(dp1
S'files'
p2
(dp3
S'testfm_splitter'
p4
(dp5
S'index'
p6
(dp7
S'html_filename'
p8
S'testfm_splitter.html'
p9
sS'name'
p10
S'testfm.splitter'
p11
sS'nums'
p12
ccopy_reg
_reconstructor
p13
(ccoverage.results
Numbers
p14
c__builtin__
object
p15
NtRp16
(dp17
S'n_files'
p18
I1
sS'n_branches'
p19
I0
sS'n_statements'
p20
I2
sS'n_excluded'
p21
I0
sS'n_partial_branches'
p22
I0
sS'n_missing'
p23
I0
sS'n_missing_branches'
p24
I0
sbssS'hash'
p25
S'\x9a\x1cy\x15]w3-L\xf0yS\x9ac\x89\x9d'
p26
ssS'testfm_evaluation_measures'
p27
(dp28
g6
(dp29
S'html_filename'
p30
S'testfm_evaluation_measures.html'
p31
sS'name'
p32
S'testfm.evaluation.measures'
p33
sS'nums'
p34
g13
(g14
g15
NtRp35
(dp36
g18
I1
sg19
I0
sg20
I51
sg21
I0
sg22
I0
sg23
I5
sg24
I0
sbssg25
S'\xf5\x16\x8a)S\x17z\x95\xf1\x88.Lc\xb7v\x83'
p37
ssS'testfm_fmio_crypt'
p38
(dp39
S'index'
p40
(dp41
S'html_filename'
p42
S'testfm_fmio_crypt.html'
p43
sS'name'
p44
S'testfm.fmio.crypt'
p45
sS'nums'
p46
g13
(g14
g15
NtRp47
(dp48
g18
I1
sg19
I0
sg20
I19
sg21
I0
sg22
I0
sg23
I14
sg24
I0
sbssS'hash'
p49
S'\xed\xebk\xdf\xf8\xd0=\xd1\x14\xff\xb0)E\x8a\xe9\x8c'
p50
ssS'testfm_models_interface'
p51
(dp52
S'index'
p53
(dp54
g30
S'testfm_models_interface.html'
p55
sg32
S'testfm.models.interface'
p56
sg34
g13
(g14
g15
NtRp57
(dp58
g18
I1
sg19
I0
sg20
I13
sg21
I0
sg22
I0
sg23
I5
sg24
I0
sbssS'hash'
p59
S'\xd4\xa2\x06<\x98\x99\xc0\xa4Y\xf1\xd9\x86\xb3.\xe4R'
p60
ssS'testfm_fmio_load_model'
p61
(dp62
g53
(dp63
g42
S'testfm_fmio_load_model.html'
p64
sg44
S'testfm.fmio.load_model'
p65
sg46
g13
(g14
g15
NtRp66
(dp67
g18
I1
sg19
I0
sg20
I26
sg21
I0
sg22
I0
sg23
I4
sg24
I0
sbssg59
S'\x1c\x87\xeb \x82.\x91\xd7s\xd3\xc8\xb2`*V*'
p68
ssS'testfm_models_tensorCoFi'
p69
(dp70
S'index'
p71
(dp72
g42
S'testfm_models_tensorCoFi.html'
p73
sg44
S'testfm.models.tensorCoFi'
p74
sg46
g13
(g14
g15
NtRp75
(dp76
g18
I1
sg19
I0
sg20
I215
sg21
I0
sg22
I0
sg23
I58
sg24
I0
sbssS'hash'
p77
S'c\xe7^H\xab\x15\xcf&;\x1alb@\xa2\xf7\x98'
p78
ssS'testfm'
p79
(dp80
g6
(dp81
g8
S'testfm.html'
p82
sg10
g79
sg12
g13
(g14
g15
NtRp83
(dp84
g18
I1
sg19
I0
sg20
I10
sg21
I0
sg22
I0
sg23
I0
sg24
I0
sbssg25
S'\x8c4\x19\xc9lY\x0c\x1a>X*\x00\x19\x14\xe3\x90'
p85
ssS'testfm_splitter_split_utils'
p86
(dp87
g6
(dp88
g8
S'testfm_splitter_split_utils.html'
p89
sg10
S'testfm.splitter.split_utils'
p90
sg12
g13
(g14
g15
NtRp91
(dp92
g18
I1
sg19
I0
sg20
I11
sg21
I0
sg22
I0
sg23
I2
sg24
I0
sbssg25
S'#P\xe4\xd3\x85\xe7\xe1f8O\x98\x84\xd3\x88\xc8\x8b'
p93
ssS'testfm_evaluation'
p94
(dp95
g6
(dp96
g8
S'testfm_evaluation.html'
p97
sg10
S'testfm.evaluation'
p98
sg12
g13
(g14
g15
NtRp99
(dp100
g18
I1
sg19
I0
sg20
I1
sg21
I0
sg22
I0
sg23
I0
sg24
I0
sbssg25
S'\x11\xf8$\x9dE\x1c\xc4>\xcap\x01\xb0s\\\xb4\xab'
p101
ssS'testfm_models_bpr'
p102
(dp103
g53
(dp104
g30
S'testfm_models_bpr.html'
p105
sg32
S'testfm.models.bpr'
p106
sg34
g13
(g14
g15
NtRp107
(dp108
g18
I1
sg19
I0
sg20
I46
sg21
I0
sg22
I0
sg23
I31
sg24
I0
sbssg59
S'\xe8wCIs\x84\x80nD\xaa\xa4\xe1\x1d\x18\xe1"'
p109
ssS'testfm_fmio'
p110
(dp111
g6
(dp112
g8
S'testfm_fmio.html'
p113
sg10
S'testfm.fmio'
p114
sg12
g13
(g14
g15
NtRp115
(dp116
g18
I1
sg19
I0
sg20
I1
sg21
I0
sg22
I0
sg23
I0
sg24
I0
sbssg25
S'\x11\xf8$\x9dE\x1c\xc4>\xcap\x01\xb0s\\\xb4\xab'
p117
ssS'testfm_splitter_holdout'
p118
(dp119
g6
(dp120
g30
S'testfm_splitter_holdout.html'
p121
sg32
S'testfm.splitter.holdout'
p122
sg34
g13
(g14
g15
NtRp123
(dp124
g18
I1
sg19
I0
sg20
I51
sg21
I0
sg22
I0
sg23
I6
sg24
I0
sbssg25
S'\xeeVq\xe5L\x1e=W\x86\xeb\xf6C*AO\xe9'
p125
ssS'testfm_models_fm_loaded'
p126
(dp127
g53
(dp128
g42
S'testfm_models_fm_loaded.html'
p129
sg44
S'testfm.models.fm_loaded'
p130
sg46
g13
(g14
g15
NtRp131
(dp132
g18
I1
sg19
I0
sg20
I17
sg21
I0
sg22
I0
sg23
I3
sg24
I0
sbssg59
S'\xf2\xe8\xa6,\xb51\xaf\x1a\xff\xd6q\x07a.\x16\xe9'
p133
ssS'testfm_config'
p134
(dp135
g6
(dp136
g8
S'testfm_config.html'
p137
sg10
S'testfm.config'
p138
sg12
g13
(g14
g15
NtRp139
(dp140
g18
I1
sg19
I0
sg20
I5
sg21
I0
sg22
I0
sg23
I0
sg24
I0
sbssg25
S'\xac\x84\xe9\x1b\x9f2\x90t#N\x82e\xa62\xf5\xda'
p141
ssS'testfm_splitter_interface'
p142
(dp143
g6
(dp144
S'html_filename'
p145
S'testfm_splitter_interface.html'
p146
sS'name'
p147
S'testfm.splitter.interface'
p148
sS'nums'
p149
g13
(g14
g15
NtRp150
(dp151
g18
I1
sg19
I0
sg20
I7
sg21
I0
sg22
I0
sg23
I0
sg24
I0
sbssg25
S'\x9f\xf7\t\x18\x17\xbb\xd4\xbc\x18\xc9\x80jr\x9f.k'
p152
ssS'testfm_models_graphchi_models'
p153
(dp154
g53
(dp155
S'html_filename'
p156
S'testfm_models_graphchi_models.html'
p157
sS'name'
p158
S'testfm.models.graphchi_models'
p159
sS'nums'
p160
g13
(g14
g15
NtRp161
(dp162
g18
I1
sg19
I0
sg20
I68
sg21
I0
sg22
I0
sg23
I2
sg24
I0
sbssg59
S'\xb1: \x88hx\xf3\xed\\N$\x94\x8c\x9b\xf1\xde'
p163
ssS'testfm_okapi'
p164
(dp165
g6
(dp166
g8
S'testfm_okapi.html'
p167
sg10
S'testfm.okapi'
p168
sg12
g13
(g14
g15
NtRp169
(dp170
g18
I1
sg19
I0
sg20
I2
sg21
I0
sg22
I0
sg23
I0
sg24
I0
sbssg25
S'\x90\xbf\t\xe7\xef\x16\x96\r\xf1\r\xaa\xe6P\xec\x8b\x84'
p171
ssS'testfm_models_content_based'
p172
(dp173
g53
(dp174
g30
S'testfm_models_content_based.html'
p175
sg32
S'testfm.models.content_based'
p176
sg34
g13
(g14
g15
NtRp177
(dp178
g18
I1
sg19
I0
sg20
I82
sg21
I0
sg22
I0
sg23
I50
sg24
I0
sbssg59
S'\xc8qyFCMb\xbc\x908\xce\xd5\x99\x0fQP'
p179
ssS'testfm_evaluation_evaluator'
p180
(dp181
g53
(dp182
g30
S'testfm_evaluation_evaluator.html'
p183
sg32
S'testfm.evaluation.evaluator'
p184
sg34
g13
(g14
g15
NtRp185
(dp186
g18
I1
sg19
I0
sg20
I89
sg21
I0
sg22
I0
sg23
I30
sg24
I0
sbssg59
S'\\\x88\x8e\xac(\xb1\x9a\xc5sR\xd4:\xf04\xa8X'
p187
ssS'testfm_models'
p188
(dp189
g6
(dp190
g30
S'testfm_models.html'
p191
sg32
S'testfm.models'
p192
sg34
g13
(g14
g15
NtRp193
(dp194
g18
I1
sg19
I0
sg20
I32
sg21
I0
sg22
I0
sg23
I15
sg24
I0
sbssg25
S':$\x18\x94\xf0\x9d3\xf6\xaez\xd9\xfe>\xc8\x18\xae'
p195
ssS'testfm_okapi_connector'
p196
(dp197
g53
(dp198
g30
S'testfm_okapi_connector.html'
p199
sg32
S'testfm.okapi.connector'
p200
sg34
g13
(g14
g15
NtRp201
(dp202
g18
I1
sg19
I0
sg20
I184
sg21
I0
sg22
I0
sg23
I96
sg24
I0
sbssg59
S'\xb4\xda\xe6\x94\xd0\xc53\xd1\xaa$\x05=\x10\xb7[\x02'
p203
ssS'testfm_evaluation_parameterTuning'
p204
(dp205
g53
(dp206
S'html_filename'
p207
S'testfm_evaluation_parameterTuning.html'
p208
sS'name'
p209
S'testfm.evaluation.parameterTuning'
p210
sS'nums'
p211
g13
(g14
g15
NtRp212
(dp213
g18
I1
sg19
I0
sg20
I42
sg21
I0
sg22
I0
sg23
I27
sg24
I0
sbssg59
S'\x92\x9d\xcb|C7\\3\xdc\xd4N\xbd\x16\xb1\xab\xa8'
p214
ssS'testfm_models_baseline_model'
p215
(dp216
g53
(dp217
g30
S'testfm_models_baseline_model.html'
p218
sg32
S'testfm.models.baseline_model'
p219
sg34
g13
(g14
g15
NtRp220
(dp221
g18
I1
sg19
I0
sg20
I93
sg21
I0
sg22
I0
sg23
I43
sg24
I0
sbssg59
S'\xffYe\xb8\n\xa720\xb2I\x84\x8a\x96\x03\x9b\x11'
p222
ssS'testfm_models_ensemble_models'
p223
(dp224
g53
(dp225
g30
S'testfm_models_ensemble_models.html'
p226
sg32
S'testfm.models.ensemble_models'
p227
sg34
g13
(g14
g15
NtRp228
(dp229
g18
I1
sg19
I0
sg20
I109
sg21
I0
sg22
I0
sg23
I70
sg24
I0
sbssg59
S'~y\xc7\x17\xd1\x92B\xa7\xceN\xda\x9czJE\t'
p230
ssS'testfm_models_tensorcofi'
p231
(dp232
S'index'
p233
(dp234
g30
S'testfm_models_tensorcofi.html'
p235
sg32
S'testfm.models.tensorcofi'
p236
sg34
g13
(g14
g15
NtRp237
(dp238
g18
I1
sg19
I0
sg20
I132
sg21
I0
sg22
I0
sg23
I96
sg24
I0
sbssS'hash'
p239
S'\xb7w\xfa\x88gf\x9b\xfe\xc4D<\x19\xfb\xff\x03j'
p240
sssS'version'
p241
S'3.7.1'
p242
sS'settings'
p243
S"`\xbb\x0c\x82\xc2\x8f'wH\xcbY\x1d]\xe6\x7fu"
p244
sS'format'
p245
I1
s.