(dp1
S'files'
p2
(dp3
S'testfm_splitter'
p4
(dp5
S'index'
p6
(dp7
S'html_filename'
p8
S'testfm_splitter.html'
p9
sS'name'
p10
S'testfm.splitter'
p11
sS'nums'
p12
ccopy_reg
_reconstructor
p13
(ccoverage.results
Numbers
p14
c__builtin__
object
p15
NtRp16
(dp17
S'n_files'
p18
I1
sS'n_branches'
p19
I0
sS'n_statements'
p20
I2
sS'n_excluded'
p21
I0
sS'n_partial_branches'
p22
I0
sS'n_missing'
p23
I0
sS'n_missing_branches'
p24
I0
sbssS'hash'
p25
S'\x9a\x1cy\x15]w3-L\xf0yS\x9ac\x89\x9d'
p26
ssS'testfm_evaluation_measures'
p27
(dp28
g6
(dp29
S'html_filename'
p30
S'testfm_evaluation_measures.html'
p31
sS'name'
p32
S'testfm.evaluation.measures'
p33
sS'nums'
p34
g13
(g14
g15
NtRp35
(dp36
g18
I1
sg19
I0
sg20
I51
sg21
I0
sg22
I0
sg23
I5
sg24
I0
sbssg25
S'\xc0\xe56O\xd45\x80f\xa1\xbe\xba\x9e6,\x85\xe1'
p37
ssS'testfm_config'
p38
(dp39
g6
(dp40
g8
S'testfm_config.html'
p41
sg10
S'testfm.config'
p42
sg12
g13
(g14
g15
NtRp43
(dp44
g18
I1
sg19
I0
sg20
I5
sg21
I0
sg22
I0
sg23
I0
sg24
I0
sbssg25
S'\xac\x84\xe9\x1b\x9f2\x90t#N\x82e\xa62\xf5\xda'
p45
ssS'testfm_models_interface'
p46
(dp47
S'index'
p48
(dp49
g30
S'testfm_models_interface.html'
p50
sg32
S'testfm.models.interface'
p51
sg34
g13
(g14
g15
NtRp52
(dp53
g18
I1
sg19
I0
sg20
I16
sg21
I0
sg22
I0
sg23
I5
sg24
I0
sbssS'hash'
p54
S'\xce\xd3RW\xa0\xae\xbaX\xc5\xe1\x12\xa5\xbf\x93cf'
p55
ssS'testfm_models_bpr'
p56
(dp57
g48
(dp58
S'html_filename'
p59
S'testfm_models_bpr.html'
p60
sS'name'
p61
S'testfm.models.bpr'
p62
sS'nums'
p63
g13
(g14
g15
NtRp64
(dp65
g18
I1
sg19
I0
sg20
I46
sg21
I0
sg22
I0
sg23
I31
sg24
I0
sbssg54
S'2\nHb\x9f\x85\x1f\xd8o\x90\x9a\xf4v\x0cS\x99'
p66
ssS'testfm_models_tensorCoFi'
p67
(dp68
S'index'
p69
(dp70
g30
S'testfm_models_tensorCoFi.html'
p71
sg32
S'testfm.models.tensorCoFi'
p72
sg34
g13
(g14
g15
NtRp73
(dp74
g18
I1
sg19
I0
sg20
I215
sg21
I0
sg22
I0
sg23
I58
sg24
I0
sbssS'hash'
p75
S'c\xe7^H\xab\x15\xcf&;\x1alb@\xa2\xf7\x98'
p76
ssS'testfm'
p77
(dp78
g6
(dp79
g8
S'testfm.html'
p80
sg10
g77
sg12
g13
(g14
g15
NtRp81
(dp82
g18
I1
sg19
I0
sg20
I10
sg21
I0
sg22
I0
sg23
I0
sg24
I0
sbssg25
S'\x8c4\x19\xc9lY\x0c\x1a>X*\x00\x19\x14\xe3\x90'
p83
ssS'testfm_models_fm_loaded'
p84
(dp85
g48
(dp86
g30
S'testfm_models_fm_loaded.html'
p87
sg32
S'testfm.models.fm_loaded'
p88
sg34
g13
(g14
g15
NtRp89
(dp90
g18
I1
sg19
I0
sg20
I17
sg21
I0
sg22
I0
sg23
I3
sg24
I0
sbssg54
S'\xf2\xe8\xa6,\xb51\xaf\x1a\xff\xd6q\x07a.\x16\xe9'
p91
ssS'testfm_evaluation'
p92
(dp93
g6
(dp94
g8
S'testfm_evaluation.html'
p95
sg10
S'testfm.evaluation'
p96
sg12
g13
(g14
g15
NtRp97
(dp98
g18
I1
sg19
I0
sg20
I1
sg21
I0
sg22
I0
sg23
I0
sg24
I0
sbssg25
S'\x11\xf8$\x9dE\x1c\xc4>\xcap\x01\xb0s\\\xb4\xab'
p99
ssS'testfm_fmio_load_model'
p100
(dp101
g48
(dp102
g30
S'testfm_fmio_load_model.html'
p103
sg32
S'testfm.fmio.load_model'
p104
sg34
g13
(g14
g15
NtRp105
(dp106
g18
I1
sg19
I0
sg20
I26
sg21
I0
sg22
I0
sg23
I4
sg24
I0
sbssg54
S'\x1c\x87\xeb \x82.\x91\xd7s\xd3\xc8\xb2`*V*'
p107
ssS'testfm_fmio'
p108
(dp109
g6
(dp110
g8
S'testfm_fmio.html'
p111
sg10
S'testfm.fmio'
p112
sg12
g13
(g14
g15
NtRp113
(dp114
g18
I1
sg19
I0
sg20
I1
sg21
I0
sg22
I0
sg23
I0
sg24
I0
sbssg25
S'\x11\xf8$\x9dE\x1c\xc4>\xcap\x01\xb0s\\\xb4\xab'
p115
ssS'testfm_models_baseline_model'
p116
(dp117
g48
(dp118
g30
S'testfm_models_baseline_model.html'
p119
sg32
S'testfm.models.baseline_model'
p120
sg34
g13
(g14
g15
NtRp121
(dp122
g18
I1
sg19
I0
sg20
I92
sg21
I0
sg22
I0
sg23
I33
sg24
I0
sbssg54
S'\xb2?\xdb\xc0%\xa8\xe3\xb1\x07\xf5"\xe4*M\xfdF'
p123
ssS'testfm_splitter_split_utils'
p124
(dp125
g6
(dp126
g8
S'testfm_splitter_split_utils.html'
p127
sg10
S'testfm.splitter.split_utils'
p128
sg12
g13
(g14
g15
NtRp129
(dp130
g18
I1
sg19
I0
sg20
I11
sg21
I0
sg22
I0
sg23
I2
sg24
I0
sbssg25
S'#P\xe4\xd3\x85\xe7\xe1f8O\x98\x84\xd3\x88\xc8\x8b'
p131
ssS'testfm_fmio_crypt'
p132
(dp133
S'index'
p134
(dp135
g30
S'testfm_fmio_crypt.html'
p136
sg32
S'testfm.fmio.crypt'
p137
sg34
g13
(g14
g15
NtRp138
(dp139
g18
I1
sg19
I0
sg20
I19
sg21
I0
sg22
I0
sg23
I14
sg24
I0
sbssS'hash'
p140
S'\xed\xebk\xdf\xf8\xd0=\xd1\x14\xff\xb0)E\x8a\xe9\x8c'
p141
ssS'testfm_splitter_interface'
p142
(dp143
g6
(dp144
S'html_filename'
p145
S'testfm_splitter_interface.html'
p146
sS'name'
p147
S'testfm.splitter.interface'
p148
sS'nums'
p149
g13
(g14
g15
NtRp150
(dp151
g18
I1
sg19
I0
sg20
I7
sg21
I0
sg22
I0
sg23
I0
sg24
I0
sbssg25
S'\x9f\xf7\t\x18\x17\xbb\xd4\xbc\x18\xc9\x80jr\x9f.k'
p152
ssS'testfm_models_graphchi_models'
p153
(dp154
g48
(dp155
S'html_filename'
p156
S'testfm_models_graphchi_models.html'
p157
sS'name'
p158
S'testfm.models.graphchi_models'
p159
sS'nums'
p160
g13
(g14
g15
NtRp161
(dp162
g18
I1
sg19
I0
sg20
I68
sg21
I0
sg22
I0
sg23
I2
sg24
I0
sbssg54
S'\xb1: \x88hx\xf3\xed\\N$\x94\x8c\x9b\xf1\xde'
p163
ssS'testfm_okapi'
p164
(dp165
g6
(dp166
g8
S'testfm_okapi.html'
p167
sg10
S'testfm.okapi'
p168
sg12
g13
(g14
g15
NtRp169
(dp170
g18
I1
sg19
I0
sg20
I2
sg21
I0
sg22
I0
sg23
I0
sg24
I0
sbssg25
S'\x90\xbf\t\xe7\xef\x16\x96\r\xf1\r\xaa\xe6P\xec\x8b\x84'
p171
ssS'testfm_models_content_based'
p172
(dp173
g48
(dp174
S'html_filename'
p175
S'testfm_models_content_based.html'
p176
sS'name'
p177
S'testfm.models.content_based'
p178
sS'nums'
p179
g13
(g14
g15
NtRp180
(dp181
g18
I1
sg19
I0
sg20
I82
sg21
I0
sg22
I0
sg23
I8
sg24
I0
sbssg54
S'\xf5!\xff\xfa\t,^]\x10?\x00=Qua#'
p182
ssS'testfm_evaluation_evaluator'
p183
(dp184
g48
(dp185
g30
S'testfm_evaluation_evaluator.html'
p186
sg32
S'testfm.evaluation.evaluator'
p187
sg34
g13
(g14
g15
NtRp188
(dp189
g18
I1
sg19
I0
sg20
I90
sg21
I0
sg22
I0
sg23
I30
sg24
I0
sbssg54
S'\x86\x95M\xa3J\x80*\xf6&\x18\xaed)\xa0\xf2\xea'
p190
ssS'testfm_models'
p191
(dp192
g6
(dp193
g30
S'testfm_models.html'
p194
sg32
S'testfm.models'
p195
sg34
g13
(g14
g15
NtRp196
(dp197
g18
I1
sg19
I0
sg20
I2
sg21
I0
sg22
I0
sg23
I0
sg24
I0
sbssg25
S'i\xd9y\xd6\x08\x93\xf2\x12\x1dP\xb3\xb6\xc1p\xab\xe5'
p198
ssS'testfm_okapi_connector'
p199
(dp200
g48
(dp201
g30
S'testfm_okapi_connector.html'
p202
sg32
S'testfm.okapi.connector'
p203
sg34
g13
(g14
g15
NtRp204
(dp205
g18
I1
sg19
I0
sg20
I184
sg21
I0
sg22
I0
sg23
I96
sg24
I0
sbssg54
S'\xac\x06\xcc\x1e\x17I\x14\xc4~`\xc1\xc0&\xbe=X'
p206
ssS'testfm_evaluation_parameterTuning'
p207
(dp208
g48
(dp209
S'html_filename'
p210
S'testfm_evaluation_parameterTuning.html'
p211
sS'name'
p212
S'testfm.evaluation.parameterTuning'
p213
sS'nums'
p214
g13
(g14
g15
NtRp215
(dp216
g18
I1
sg19
I0
sg20
I42
sg21
I0
sg22
I0
sg23
I27
sg24
I0
sbssg54
S'\x92\x9d\xcb|C7\\3\xdc\xd4N\xbd\x16\xb1\xab\xa8'
p217
ssS'testfm_splitter_holdout'
p218
(dp219
g6
(dp220
S'html_filename'
p221
S'testfm_splitter_holdout.html'
p222
sS'name'
p223
S'testfm.splitter.holdout'
p224
sS'nums'
p225
g13
(g14
g15
NtRp226
(dp227
g18
I1
sg19
I0
sg20
I51
sg21
I0
sg22
I0
sg23
I4
sg24
I0
sbssg25
S'r\xc4\x17\x97\x1fZ\x89\x08\x00\x98\xd9\xbc\xf3\xd6\x04\x12'
p228
ssS'testfm_models_ensemble_models'
p229
(dp230
g48
(dp231
g30
S'testfm_models_ensemble_models.html'
p232
sg32
S'testfm.models.ensemble_models'
p233
sg34
g13
(g14
g15
NtRp234
(dp235
g18
I1
sg19
I0
sg20
I109
sg21
I0
sg22
I0
sg23
I40
sg24
I0
sbssg54
S'\xb7x\x1d\x0ebl\x12\xf8\xd3\xa6f3\x92\x0b\xde\xc8'
p236
sssS'version'
p237
S'3.7.1'
p238
sS'settings'
p239
S"`\xbb\x0c\x82\xc2\x8f'wH\xcbY\x1d]\xe6\x7fu"
p240
sS'format'
p241
I1
s.