(dp1
S'files'
p2
(dp3
S'testfm_splitter'
p4
(dp5
S'index'
p6
(dp7
S'html_filename'
p8
S'testfm_splitter.html'
p9
sS'name'
p10
S'testfm.splitter'
p11
sS'nums'
p12
ccopy_reg
_reconstructor
p13
(ccoverage.results
Numbers
p14
c__builtin__
object
p15
NtRp16
(dp17
S'n_files'
p18
I1
sS'n_branches'
p19
I0
sS'n_statements'
p20
I2
sS'n_excluded'
p21
I0
sS'n_partial_branches'
p22
I0
sS'n_missing'
p23
I0
sS'n_missing_branches'
p24
I0
sbssS'hash'
p25
S'\x9a\x1cy\x15]w3-L\xf0yS\x9ac\x89\x9d'
p26
ssS'testfm_evaluation_measures'
p27
(dp28
g6
(dp29
S'html_filename'
p30
S'testfm_evaluation_measures.html'
p31
sS'name'
p32
S'testfm.evaluation.measures'
p33
sS'nums'
p34
g13
(g14
g15
NtRp35
(dp36
g18
I1
sg19
I0
sg20
I51
sg21
I0
sg22
I0
sg23
I38
sg24
I0
sbssg25
S'\x99tx\xf12\x88\xd99]\xb3W\x1c\r\xd0k\xf3'
p37
ssS'testfm_models_interface'
p38
(dp39
S'index'
p40
(dp41
S'html_filename'
p42
S'testfm_models_interface.html'
p43
sS'name'
p44
S'testfm.models.interface'
p45
sS'nums'
p46
g13
(g14
g15
NtRp47
(dp48
g18
I1
sg19
I0
sg20
I16
sg21
I0
sg22
I0
sg23
I5
sg24
I0
sbssS'hash'
p49
S'\x85nX\xb5\x80\x94\x102\x90\xfd\xa1\xf7\xca[\xc2g'
p50
ssS'testfm_models_tensorCoFi'
p51
(dp52
S'index'
p53
(dp54
S'html_filename'
p55
S'testfm_models_tensorCoFi.html'
p56
sS'name'
p57
S'testfm.models.tensorCoFi'
p58
sS'nums'
p59
g13
(g14
g15
NtRp60
(dp61
g18
I1
sg19
I0
sg20
I134
sg21
I0
sg22
I0
sg23
I7
sg24
I0
sbssS'hash'
p62
S'G\x0c\x85^W3\x8cT\x8f\x06<F\x1fr\x94\xc7'
p63
ssS'testfm'
p64
(dp65
g6
(dp66
g8
S'testfm.html'
p67
sg10
g64
sg12
g13
(g14
g15
NtRp68
(dp69
g18
I1
sg19
I0
sg20
I10
sg21
I0
sg22
I0
sg23
I0
sg24
I0
sbssg25
S'\x8c4\x19\xc9lY\x0c\x1a>X*\x00\x19\x14\xe3\x90'
p70
ssS'testfm_models_fm_loaded'
p71
(dp72
g40
(dp73
g30
S'testfm_models_fm_loaded.html'
p74
sg32
S'testfm.models.fm_loaded'
p75
sg34
g13
(g14
g15
NtRp76
(dp77
g18
I1
sg19
I0
sg20
I17
sg21
I0
sg22
I0
sg23
I7
sg24
I0
sbssg49
S'\x9c\x02\xe2\xc0\xf2\x91V\xa5\xf1\xc6\xfa\nm\x89\x18\xe2'
p78
ssS'testfm_evaluation'
p79
(dp80
g6
(dp81
g8
S'testfm_evaluation.html'
p82
sg10
S'testfm.evaluation'
p83
sg12
g13
(g14
g15
NtRp84
(dp85
g18
I1
sg19
I0
sg20
I1
sg21
I0
sg22
I0
sg23
I0
sg24
I0
sbssg25
S'\x11\xf8$\x9dE\x1c\xc4>\xcap\x01\xb0s\\\xb4\xab'
p86
ssS'testfm_models_bpr'
p87
(dp88
g40
(dp89
S'html_filename'
p90
S'testfm_models_bpr.html'
p91
sS'name'
p92
S'testfm.models.bpr'
p93
sS'nums'
p94
g13
(g14
g15
NtRp95
(dp96
g18
I1
sg19
I0
sg20
I46
sg21
I0
sg22
I0
sg23
I31
sg24
I0
sbssg49
S'2\nHb\x9f\x85\x1f\xd8o\x90\x9a\xf4v\x0cS\x99'
p97
ssS'testfm_fmio'
p98
(dp99
g6
(dp100
g8
S'testfm_fmio.html'
p101
sg10
S'testfm.fmio'
p102
sg12
g13
(g14
g15
NtRp103
(dp104
g18
I1
sg19
I0
sg20
I1
sg21
I0
sg22
I0
sg23
I0
sg24
I0
sbssg25
S'\x11\xf8$\x9dE\x1c\xc4>\xcap\x01\xb0s\\\xb4\xab'
p105
ssS'testfm_splitter_holdout'
p106
(dp107
g6
(dp108
S'html_filename'
p109
S'testfm_splitter_holdout.html'
p110
sS'name'
p111
S'testfm.splitter.holdout'
p112
sS'nums'
p113
g13
(g14
g15
NtRp114
(dp115
g18
I1
sg19
I0
sg20
I51
sg21
I0
sg22
I0
sg23
I4
sg24
I0
sbssg25
S'r\xc4\x17\x97\x1fZ\x89\x08\x00\x98\xd9\xbc\xf3\xd6\x04\x12'
p116
ssS'testfm_splitter_split_utils'
p117
(dp118
g6
(dp119
g8
S'testfm_splitter_split_utils.html'
p120
sg10
S'testfm.splitter.split_utils'
p121
sg12
g13
(g14
g15
NtRp122
(dp123
g18
I1
sg19
I0
sg20
I11
sg21
I0
sg22
I0
sg23
I2
sg24
I0
sbssg25
S'#P\xe4\xd3\x85\xe7\xe1f8O\x98\x84\xd3\x88\xc8\x8b'
p124
ssS'testfm_config'
p125
(dp126
g6
(dp127
g8
S'testfm_config.html'
p128
sg10
S'testfm.config'
p129
sg12
g13
(g14
g15
NtRp130
(dp131
g18
I1
sg19
I0
sg20
I5
sg21
I0
sg22
I0
sg23
I0
sg24
I0
sbssg25
S'\xac\x84\xe9\x1b\x9f2\x90t#N\x82e\xa62\xf5\xda'
p132
ssS'testfm_okapi'
p133
(dp134
g6
(dp135
g8
S'testfm_okapi.html'
p136
sg10
S'testfm.okapi'
p137
sg12
g13
(g14
g15
NtRp138
(dp139
g18
I1
sg19
I0
sg20
I2
sg21
I0
sg22
I0
sg23
I0
sg24
I0
sbssg25
S'\x90\xbf\t\xe7\xef\x16\x96\r\xf1\r\xaa\xe6P\xec\x8b\x84'
p140
ssS'testfm_splitter_interface'
p141
(dp142
g6
(dp143
S'html_filename'
p144
S'testfm_splitter_interface.html'
p145
sS'name'
p146
S'testfm.splitter.interface'
p147
sS'nums'
p148
g13
(g14
g15
NtRp149
(dp150
g18
I1
sg19
I0
sg20
I7
sg21
I0
sg22
I0
sg23
I0
sg24
I0
sbssg25
S'\x9f\xf7\t\x18\x17\xbb\xd4\xbc\x18\xc9\x80jr\x9f.k'
p151
ssS'testfm_models_graphchi_models'
p152
(dp153
g40
(dp154
S'html_filename'
p155
S'testfm_models_graphchi_models.html'
p156
sS'name'
p157
S'testfm.models.graphchi_models'
p158
sS'nums'
p159
g13
(g14
g15
NtRp160
(dp161
g18
I1
sg19
I0
sg20
I68
sg21
I0
sg22
I0
sg23
I27
sg24
I0
sbssg49
S'\xd2\xc6x\xbfL[\x81\xb0\x14X\xaa\xe9KX\x810'
p162
ssS'testfm_fmio_load_model'
p163
(dp164
g40
(dp165
g30
S'testfm_fmio_load_model.html'
p166
sg32
S'testfm.fmio.load_model'
p167
sg34
g13
(g14
g15
NtRp168
(dp169
g18
I1
sg19
I0
sg20
I26
sg21
I0
sg22
I0
sg23
I13
sg24
I0
sbssg49
S'b]\xbe8\x0bT\x17\xbfelw[\x08\xf3\x91F'
p170
ssS'testfm_models_content_based'
p171
(dp172
g40
(dp173
S'html_filename'
p174
S'testfm_models_content_based.html'
p175
sS'name'
p176
S'testfm.models.content_based'
p177
sS'nums'
p178
g13
(g14
g15
NtRp179
(dp180
g18
I1
sg19
I0
sg20
I82
sg21
I0
sg22
I0
sg23
I8
sg24
I0
sbssg49
S'\xf5!\xff\xfa\t,^]\x10?\x00=Qua#'
p181
ssS'testfm_evaluation_evaluator'
p182
(dp183
g40
(dp184
S'html_filename'
p185
S'testfm_evaluation_evaluator.html'
p186
sS'name'
p187
S'testfm.evaluation.evaluator'
p188
sS'nums'
p189
g13
(g14
g15
NtRp190
(dp191
g18
I1
sg19
I0
sg20
I90
sg21
I0
sg22
I0
sg23
I48
sg24
I0
sbssg49
S'}\x89kM\x8e\xfby\x01\x1a\xce\xb7\xce\xf0\x07\xb3\xf7'
p192
ssS'testfm_models'
p193
(dp194
g6
(dp195
g8
S'testfm_models.html'
p196
sg10
S'testfm.models'
p197
sg12
g13
(g14
g15
NtRp198
(dp199
g18
I1
sg19
I0
sg20
I2
sg21
I0
sg22
I0
sg23
I0
sg24
I0
sbssg25
S'\x0e\xafO3\xf9\xaa\xf2\x1c\xd7\xb5z!0U\xc6F'
p200
ssS'testfm_okapi_connector'
p201
(dp202
g40
(dp203
S'html_filename'
p204
S'testfm_okapi_connector.html'
p205
sS'name'
p206
S'testfm.okapi.connector'
p207
sS'nums'
p208
g13
(g14
g15
NtRp209
(dp210
g18
I1
sg19
I0
sg20
I175
sg21
I0
sg22
I0
sg23
I78
sg24
I0
sbssg49
S'0\xa0<\xafr%[y\x7f\x81\x14\xe0o\xccR\xaa'
p211
ssS'testfm_evaluation_parameterTuning'
p212
(dp213
g40
(dp214
g42
S'testfm_evaluation_parameterTuning.html'
p215
sg44
S'testfm.evaluation.parameterTuning'
p216
sg46
g13
(g14
g15
NtRp217
(dp218
g18
I1
sg19
I0
sg20
I42
sg21
I0
sg22
I0
sg23
I27
sg24
I0
sbssg49
S'\x92\x9d\xcb|C7\\3\xdc\xd4N\xbd\x16\xb1\xab\xa8'
p219
ssS'testfm_models_baseline_model'
p220
(dp221
g40
(dp222
g204
S'testfm_models_baseline_model.html'
p223
sg206
S'testfm.models.baseline_model'
p224
sg208
g13
(g14
g15
NtRp225
(dp226
g18
I1
sg19
I0
sg20
I92
sg21
I0
sg22
I0
sg23
I30
sg24
I0
sbssg49
S'\x86\n\xb0\xbe\x96\x85\x9e\x85t\xce:\xd4N\x97\x8a\xac'
p227
ssS'testfm_models_ensemble_models'
p228
(dp229
g40
(dp230
g30
S'testfm_models_ensemble_models.html'
p231
sg32
S'testfm.models.ensemble_models'
p232
sg34
g13
(g14
g15
NtRp233
(dp234
g18
I1
sg19
I0
sg20
I109
sg21
I0
sg22
I0
sg23
I46
sg24
I0
sbssg49
S'\xfc\xf1l\xcb\xc9Q"*\xfe\xe0MM\xe8\xe91?'
p235
sssS'version'
p236
S'3.7.1'
p237
sS'settings'
p238
S"`\xbb\x0c\x82\xc2\x8f'wH\xcbY\x1d]\xe6\x7fu"
p239
sS'format'
p240
I1
s.